target datalayout = "e-m:e-p270:32:32-p271:32:32-p272:64:64-i64:64-i128:128-f80:128-n8:16:32:64-S128"
target triple = "x86_64-pc-linux-gnu"

%struct.JSValue = type { %union.JSValueUnion, i64 }
%union.JSValueUnion = type { double }
%struct.JSSTDFile = type { ptr, i32, i32 }

@js_std_file_class_id = internal global i32 0, align 4

; Function Attrs: nounwind uwtable
define internal void @js_std_file_finalizer(ptr noundef %0, i64 %1, i64 %2) #0 {
  %4 = alloca %struct.JSValue, align 8
  %5 = alloca ptr, align 8
  %6 = alloca ptr, align 8
  %7 = getelementptr inbounds { i64, i64 }, ptr %4, i32 0, i32 0
  store i64 %1, ptr %7, align 8
  %8 = getelementptr inbounds { i64, i64 }, ptr %4, i32 0, i32 1
  store i64 %2, ptr %8, align 8
  store ptr %0, ptr %5, align 8
  %9 = load i32, ptr @js_std_file_class_id, align 4
  %10 = getelementptr inbounds { i64, i64 }, ptr %4, i32 0, i32 0
  %11 = load i64, ptr %10, align 8
  %12 = getelementptr inbounds { i64, i64 }, ptr %4, i32 0, i32 1
  %13 = load i64, ptr %12, align 8
  %14 = call ptr @JS_GetOpaque(i64 %11, i64 %13, i32 noundef %9)
  store ptr %14, ptr %6, align 8
  %15 = load ptr, ptr %6, align 8
  %16 = icmp ne ptr %15, null
  br i1 %16, label %17, label %46

17:                                               ; preds = %3
  %18 = load ptr, ptr %6, align 8
  %19 = getelementptr inbounds %struct.JSSTDFile, ptr %18, i32 0, i32 0
  %20 = load ptr, ptr %19, align 8
  %21 = icmp ne ptr %20, null
  br i1 %21, label %22, label %43

22:                                               ; preds = %17
  %23 = load ptr, ptr %6, align 8
  %24 = getelementptr inbounds %struct.JSSTDFile, ptr %23, i32 0, i32 1
  %25 = load i32, ptr %24, align 8
  %26 = icmp ne i32 %25, 0
  br i1 %26, label %27, label %43

27:                                               ; preds = %22
  %28 = load ptr, ptr %6, align 8
  %29 = getelementptr inbounds %struct.JSSTDFile, ptr %28, i32 0, i32 2
  %30 = load i32, ptr %29, align 4
  %31 = icmp ne i32 %30, 0
  br i1 %31, label %32, label %37

32:                                               ; preds = %27
  %33 = load ptr, ptr %6, align 8
  %34 = getelementptr inbounds %struct.JSSTDFile, ptr %33, i32 0, i32 0
  %35 = load ptr, ptr %34, align 8
  %36 = call i32 @pclose(ptr noundef %35)
  br label %42

37:                                               ; preds = %27
  %38 = load ptr, ptr %6, align 8
  %39 = getelementptr inbounds %struct.JSSTDFile, ptr %38, i32 0, i32 0
  %40 = load ptr, ptr %39, align 8
  %41 = call i32 @fclose(ptr noundef %40)
  br label %42

42:                                               ; preds = %37, %32
  br label %43

43:                                               ; preds = %42, %22, %17
  %44 = load ptr, ptr %5, align 8
  %45 = load ptr, ptr %6, align 8
  call void @js_free_rt(ptr noundef %44, ptr noundef %45)
  br label %46

46:                                               ; preds = %43, %3
  ret void
}