; Function Attrs: nounwind uwtable
define internal void @js_std_file_finalizer(ptr noundef %0, i64 %1, i64 %2) #0 {
  %4 = load i32, ptr @js_std_file_class_id, align 4
  %5 = tail call ptr @JS_GetOpaque(i64 %1, i64 %2, i32 noundef %4) #29
  %.not = icmp eq ptr %5, null
  br i1 %.not, label %19, label %6

6:                                                ; preds = %3
  %7 = load ptr, ptr %5, align 8
  %.not9 = icmp eq ptr %7, null
  br i1 %.not9, label %18, label %8

8:                                                ; preds = %6
  %9 = getelementptr inbounds i8, ptr %5, i64 8
  %10 = load i32, ptr %9, align 8
  %.not10 = icmp eq i32 %10, 0
  br i1 %.not10, label %18, label %11

11:                                               ; preds = %8
  %12 = getelementptr inbounds i8, ptr %5, i64 12
  %13 = load i32, ptr %12, align 4
  %.not11 = icmp eq i32 %13, 0
  br i1 %.not11, label %16, label %14

14:                                               ; preds = %11
  %15 = tail call i32 @pclose(ptr noundef nonnull %7)
  br label %18

16:                                               ; preds = %11
  %17 = tail call i32 @fclose(ptr noundef nonnull %7)
  br label %18

18:                                               ; preds = %14, %16, %8, %6
  tail call void @js_free_rt(ptr noundef %0, ptr noundef nonnull %5) #29
  br label %19

19:                                               ; preds = %18, %3
  ret void
}